; Function Attrs: mustprogress uwtable
define noundef ptr @_ZNK8proxygen13ResourceStats10getNewDataEv(ptr nocapture noundef nonnull readonly align 16 dereferenceable(184) %this) unnamed_addr #0 align 2 personality ptr @__gxx_personality_v0 {
entry:
  %call = tail call noalias noundef nonnull dereferenceable(256) ptr @_Znwm(i64 noundef 256) #19
  %resources_ = getelementptr inbounds i8, ptr %this, i64 176
  %0 = load ptr, ptr %resources_, align 16
  %vtable = load ptr, ptr %0, align 8
  %vfn = getelementptr inbounds i8, ptr %vtable, i64 16
  %1 = load ptr, ptr %vfn, align 8
  invoke void %1(ptr nonnull sret(%"struct.proxygen::ResourceData") align 8 %call, ptr noundef nonnull align 8 dereferenceable(8) %0)
          to label %invoke.cont unwind label %lpad

invoke.cont:                                      ; preds = %entry
  ret ptr %call

lpad:                                             ; preds = %entry
  %2 = landingpad { ptr, i32 }
          cleanup
  tail call void @_ZdlPv(ptr noundef nonnull %call) #20
  resume { ptr, i32 } %2
}